
build/bin/osdev.bin:     file format elf32-i386


Disassembly of section .text:

00100000 <start_-0xc>:
  100000:	02 b0 ad 1b 03 00    	add    0x31bad(%eax),%dh
  100006:	00 00                	add    %al,(%eax)
  100008:	fb                   	sti    
  100009:	4f                   	dec    %edi
  10000a:	52                   	push   %edx
  10000b:	e4 bc                	in     $0xbc,%al

0010000c <start_>:
  10000c:	bc ee 4f 10 00       	mov    $0x104fee,%esp
  100011:	e8 f8 02 00 00       	call   10030e <_kernel_init>
  100016:	83 ec 06             	sub    $0x6,%esp
  100019:	c7 44 24 02 00 10 10 	movl   $0x101000,0x2(%esp)
  100020:	00 
  100021:	66 a1 00 50 10 00    	mov    0x105000,%ax
  100027:	66 89 04 24          	mov    %ax,(%esp)
  10002b:	83 c4 06             	add    $0x6,%esp
  10002e:	66 b9 10 00          	mov    $0x10,%cx
  100032:	8e c1                	mov    %ecx,%es
  100034:	8e d9                	mov    %ecx,%ds
  100036:	8e e1                	mov    %ecx,%fs
  100038:	8e e9                	mov    %ecx,%gs
  10003a:	8e d1                	mov    %ecx,%ss
  10003c:	66 6a 08             	pushw  $0x8
  10003f:	68 45 00 10 00       	push   $0x100045
  100044:	cb                   	lret   

00100045 <_after_gdt>:
  100045:	53                   	push   %ebx
  100046:	e8 d0 02 00 00       	call   10031b <_kernel_main>
  10004b:	fa                   	cli    

0010004c <j_>:
  10004c:	f4                   	hlt    
  10004d:	eb fd                	jmp    10004c <j_>

0010004f <_set_gdt_entry>:
  10004f:	55                   	push   %ebp
  100050:	57                   	push   %edi
  100051:	56                   	push   %esi
  100052:	53                   	push   %ebx
  100053:	8b 44 24 18          	mov    0x18(%esp),%eax
  100057:	25 00 00 00 ff       	and    $0xff000000,%eax
  10005c:	0b 44 24 20          	or     0x20(%esp),%eax
  100060:	8b 54 24 1c          	mov    0x1c(%esp),%edx
  100064:	81 e2 00 00 0f 00    	and    $0xf0000,%edx
  10006a:	09 c2                	or     %eax,%edx
  10006c:	8b 44 24 18          	mov    0x18(%esp),%eax
  100070:	25 00 00 ff 00       	and    $0xff0000,%eax
  100075:	c1 e8 10             	shr    $0x10,%eax
  100078:	09 d0                	or     %edx,%eax
  10007a:	ba 00 00 00 00       	mov    $0x0,%edx
  10007f:	8b 74 24 14          	mov    0x14(%esp),%esi
  100083:	89 04 f5 00 10 10 00 	mov    %eax,0x101000(,%esi,8)
  10008a:	89 14 f5 04 10 10 00 	mov    %edx,0x101004(,%esi,8)
  100091:	8b 44 24 14          	mov    0x14(%esp),%eax
  100095:	8b 14 c5 04 10 10 00 	mov    0x101004(,%eax,8),%edx
  10009c:	8b 04 c5 00 10 10 00 	mov    0x101000(,%eax,8),%eax
  1000a3:	89 c2                	mov    %eax,%edx
  1000a5:	b8 00 00 00 00       	mov    $0x0,%eax
  1000aa:	8b 74 24 14          	mov    0x14(%esp),%esi
  1000ae:	89 04 f5 00 10 10 00 	mov    %eax,0x101000(,%esi,8)
  1000b5:	89 14 f5 04 10 10 00 	mov    %edx,0x101004(,%esi,8)
  1000bc:	8b 44 24 14          	mov    0x14(%esp),%eax
  1000c0:	8b 14 c5 04 10 10 00 	mov    0x101004(,%eax,8),%edx
  1000c7:	8b 04 c5 00 10 10 00 	mov    0x101000(,%eax,8),%eax
  1000ce:	8b 74 24 18          	mov    0x18(%esp),%esi
  1000d2:	89 f7                	mov    %esi,%edi
  1000d4:	c1 e7 10             	shl    $0x10,%edi
  1000d7:	8b 74 24 1c          	mov    0x1c(%esp),%esi
  1000db:	0f b7 f6             	movzwl %si,%esi
  1000de:	09 fe                	or     %edi,%esi
  1000e0:	bf 00 00 00 00       	mov    $0x0,%edi
  1000e5:	89 c5                	mov    %eax,%ebp
  1000e7:	09 f5                	or     %esi,%ebp
  1000e9:	89 e9                	mov    %ebp,%ecx
  1000eb:	89 d0                	mov    %edx,%eax
  1000ed:	09 f8                	or     %edi,%eax
  1000ef:	89 c3                	mov    %eax,%ebx
  1000f1:	8b 44 24 14          	mov    0x14(%esp),%eax
  1000f5:	89 0c c5 00 10 10 00 	mov    %ecx,0x101000(,%eax,8)
  1000fc:	89 1c c5 04 10 10 00 	mov    %ebx,0x101004(,%eax,8)
  100103:	90                   	nop
  100104:	5b                   	pop    %ebx
  100105:	5e                   	pop    %esi
  100106:	5f                   	pop    %edi
  100107:	5d                   	pop    %ebp
  100108:	c3                   	ret    

00100109 <_init_gdt>:
  100109:	83 ec 04             	sub    $0x4,%esp
  10010c:	6a 00                	push   $0x0
  10010e:	6a 00                	push   $0x0
  100110:	6a 00                	push   $0x0
  100112:	6a 00                	push   $0x0
  100114:	e8 36 ff ff ff       	call   10004f <_set_gdt_entry>
  100119:	83 c4 10             	add    $0x10,%esp
  10011c:	68 00 9a c0 00       	push   $0xc09a00
  100121:	68 ff ff 0f 00       	push   $0xfffff
  100126:	6a 00                	push   $0x0
  100128:	6a 01                	push   $0x1
  10012a:	e8 20 ff ff ff       	call   10004f <_set_gdt_entry>
  10012f:	83 c4 10             	add    $0x10,%esp
  100132:	68 00 92 c0 00       	push   $0xc09200
  100137:	68 ff ff 0f 00       	push   $0xfffff
  10013c:	6a 00                	push   $0x0
  10013e:	6a 02                	push   $0x2
  100140:	e8 0a ff ff ff       	call   10004f <_set_gdt_entry>
  100145:	83 c4 10             	add    $0x10,%esp
  100148:	68 00 fa c0 00       	push   $0xc0fa00
  10014d:	68 ff ff 0f 00       	push   $0xfffff
  100152:	6a 00                	push   $0x0
  100154:	6a 03                	push   $0x3
  100156:	e8 f4 fe ff ff       	call   10004f <_set_gdt_entry>
  10015b:	83 c4 10             	add    $0x10,%esp
  10015e:	68 00 f2 c0 00       	push   $0xc0f200
  100163:	68 ff ff 0f 00       	push   $0xfffff
  100168:	6a 00                	push   $0x0
  10016a:	6a 04                	push   $0x4
  10016c:	e8 de fe ff ff       	call   10004f <_set_gdt_entry>
  100171:	83 c4 10             	add    $0x10,%esp
  100174:	90                   	nop
  100175:	83 c4 04             	add    $0x4,%esp
  100178:	c3                   	ret    

00100179 <tty_set_theme>:
  100179:	83 ec 08             	sub    $0x8,%esp
  10017c:	8b 54 24 0c          	mov    0xc(%esp),%edx
  100180:	8b 44 24 10          	mov    0x10(%esp),%eax
  100184:	66 89 54 24 04       	mov    %dx,0x4(%esp)
  100189:	66 89 04 24          	mov    %ax,(%esp)
  10018d:	0f b7 04 24          	movzwl (%esp),%eax
  100191:	c1 e0 04             	shl    $0x4,%eax
  100194:	89 c2                	mov    %eax,%edx
  100196:	0f b7 44 24 04       	movzwl 0x4(%esp),%eax
  10019b:	09 d0                	or     %edx,%eax
  10019d:	c1 e0 08             	shl    $0x8,%eax
  1001a0:	66 a3 f0 4f 10 00    	mov    %ax,0x104ff0
  1001a6:	90                   	nop
  1001a7:	83 c4 08             	add    $0x8,%esp
  1001aa:	c3                   	ret    

001001ab <tty_put_char>:
  1001ab:	83 ec 1c             	sub    $0x1c,%esp
  1001ae:	8b 44 24 20          	mov    0x20(%esp),%eax
  1001b2:	88 44 24 0c          	mov    %al,0xc(%esp)
  1001b6:	80 7c 24 0c 0a       	cmpb   $0xa,0xc(%esp)
  1001bb:	75 1c                	jne    1001d9 <tty_put_char+0x2e>
  1001bd:	c7 05 f4 4f 10 00 00 	movl   $0x0,0x104ff4
  1001c4:	00 00 00 
  1001c7:	0f b7 05 f8 4f 10 00 	movzwl 0x104ff8,%eax
  1001ce:	83 c0 01             	add    $0x1,%eax
  1001d1:	66 a3 f8 4f 10 00    	mov    %ax,0x104ff8
  1001d7:	eb 7d                	jmp    100256 <tty_put_char+0xab>
  1001d9:	80 7c 24 0c 0d       	cmpb   $0xd,0xc(%esp)
  1001de:	75 0c                	jne    1001ec <tty_put_char+0x41>
  1001e0:	c7 05 f4 4f 10 00 00 	movl   $0x0,0x104ff4
  1001e7:	00 00 00 
  1001ea:	eb 6a                	jmp    100256 <tty_put_char+0xab>
  1001ec:	8b 0d 04 50 10 00    	mov    0x105004,%ecx
  1001f2:	0f b7 05 f8 4f 10 00 	movzwl 0x104ff8,%eax
  1001f9:	0f b7 d0             	movzwl %ax,%edx
  1001fc:	89 d0                	mov    %edx,%eax
  1001fe:	c1 e0 02             	shl    $0x2,%eax
  100201:	01 d0                	add    %edx,%eax
  100203:	c1 e0 04             	shl    $0x4,%eax
  100206:	89 c2                	mov    %eax,%edx
  100208:	a1 f4 4f 10 00       	mov    0x104ff4,%eax
  10020d:	01 d0                	add    %edx,%eax
  10020f:	01 c0                	add    %eax,%eax
  100211:	01 c8                	add    %ecx,%eax
  100213:	66 0f be 54 24 0c    	movsbw 0xc(%esp),%dx
  100219:	0f b7 0d f0 4f 10 00 	movzwl 0x104ff0,%ecx
  100220:	09 ca                	or     %ecx,%edx
  100222:	66 89 10             	mov    %dx,(%eax)
  100225:	a1 f4 4f 10 00       	mov    0x104ff4,%eax
  10022a:	83 c0 01             	add    $0x1,%eax
  10022d:	a3 f4 4f 10 00       	mov    %eax,0x104ff4
  100232:	a1 f4 4f 10 00       	mov    0x104ff4,%eax
  100237:	83 f8 4f             	cmp    $0x4f,%eax
  10023a:	76 1a                	jbe    100256 <tty_put_char+0xab>
  10023c:	c7 05 f4 4f 10 00 00 	movl   $0x0,0x104ff4
  100243:	00 00 00 
  100246:	0f b7 05 f8 4f 10 00 	movzwl 0x104ff8,%eax
  10024d:	83 c0 01             	add    $0x1,%eax
  100250:	66 a3 f8 4f 10 00    	mov    %ax,0x104ff8
  100256:	0f b7 05 f8 4f 10 00 	movzwl 0x104ff8,%eax
  10025d:	66 83 f8 18          	cmp    $0x18,%ax
  100261:	76 15                	jbe    100278 <tty_put_char+0xcd>
  100263:	e8 45 00 00 00       	call   1002ad <tty_scroll_up>
  100268:	0f b7 05 f8 4f 10 00 	movzwl 0x104ff8,%eax
  10026f:	83 e8 01             	sub    $0x1,%eax
  100272:	66 a3 f8 4f 10 00    	mov    %ax,0x104ff8
  100278:	90                   	nop
  100279:	83 c4 1c             	add    $0x1c,%esp
  10027c:	c3                   	ret    

0010027d <tty_put_str>:
  10027d:	83 ec 0c             	sub    $0xc,%esp
  100280:	eb 1b                	jmp    10029d <tty_put_str+0x20>
  100282:	8b 44 24 10          	mov    0x10(%esp),%eax
  100286:	0f b6 00             	movzbl (%eax),%eax
  100289:	0f be c0             	movsbl %al,%eax
  10028c:	83 ec 0c             	sub    $0xc,%esp
  10028f:	50                   	push   %eax
  100290:	e8 16 ff ff ff       	call   1001ab <tty_put_char>
  100295:	83 c4 10             	add    $0x10,%esp
  100298:	83 44 24 10 01       	addl   $0x1,0x10(%esp)
  10029d:	8b 44 24 10          	mov    0x10(%esp),%eax
  1002a1:	0f b6 00             	movzbl (%eax),%eax
  1002a4:	84 c0                	test   %al,%al
  1002a6:	75 da                	jne    100282 <tty_put_str+0x5>
  1002a8:	90                   	nop
  1002a9:	83 c4 0c             	add    $0xc,%esp
  1002ac:	c3                   	ret    

001002ad <tty_scroll_up>:
  1002ad:	90                   	nop
  1002ae:	c3                   	ret    

001002af <tty_clear>:
  1002af:	83 ec 10             	sub    $0x10,%esp
  1002b2:	c7 44 24 0c 00 00 00 	movl   $0x0,0xc(%esp)
  1002b9:	00 
  1002ba:	eb 46                	jmp    100302 <tty_clear+0x53>
  1002bc:	c7 44 24 08 00 00 00 	movl   $0x0,0x8(%esp)
  1002c3:	00 
  1002c4:	eb 30                	jmp    1002f6 <tty_clear+0x47>
  1002c6:	8b 0d 04 50 10 00    	mov    0x105004,%ecx
  1002cc:	8b 54 24 08          	mov    0x8(%esp),%edx
  1002d0:	89 d0                	mov    %edx,%eax
  1002d2:	c1 e0 02             	shl    $0x2,%eax
  1002d5:	01 d0                	add    %edx,%eax
  1002d7:	c1 e0 04             	shl    $0x4,%eax
  1002da:	89 c2                	mov    %eax,%edx
  1002dc:	8b 44 24 0c          	mov    0xc(%esp),%eax
  1002e0:	01 d0                	add    %edx,%eax
  1002e2:	01 c0                	add    %eax,%eax
  1002e4:	8d 14 01             	lea    (%ecx,%eax,1),%edx
  1002e7:	0f b7 05 f0 4f 10 00 	movzwl 0x104ff0,%eax
  1002ee:	66 89 02             	mov    %ax,(%edx)
  1002f1:	83 44 24 08 01       	addl   $0x1,0x8(%esp)
  1002f6:	83 7c 24 08 18       	cmpl   $0x18,0x8(%esp)
  1002fb:	76 c9                	jbe    1002c6 <tty_clear+0x17>
  1002fd:	83 44 24 0c 01       	addl   $0x1,0xc(%esp)
  100302:	83 7c 24 0c 4f       	cmpl   $0x4f,0xc(%esp)
  100307:	76 b3                	jbe    1002bc <tty_clear+0xd>
  100309:	90                   	nop
  10030a:	83 c4 10             	add    $0x10,%esp
  10030d:	c3                   	ret    

0010030e <_kernel_init>:
  10030e:	83 ec 0c             	sub    $0xc,%esp
  100311:	e8 f3 fd ff ff       	call   100109 <_init_gdt>
  100316:	90                   	nop
  100317:	83 c4 0c             	add    $0xc,%esp
  10031a:	c3                   	ret    

0010031b <_kernel_main>:
  10031b:	83 ec 1c             	sub    $0x1c,%esp
  10031e:	8b 44 24 20          	mov    0x20(%esp),%eax
  100322:	89 44 24 0c          	mov    %eax,0xc(%esp)
  100326:	83 44 24 0c 01       	addl   $0x1,0xc(%esp)
  10032b:	83 ec 08             	sub    $0x8,%esp
  10032e:	6a 00                	push   $0x0
  100330:	6a 02                	push   $0x2
  100332:	e8 42 fe ff ff       	call   100179 <tty_set_theme>
  100337:	83 c4 10             	add    $0x10,%esp
  10033a:	83 ec 0c             	sub    $0xc,%esp
  10033d:	68 00 60 10 00       	push   $0x106000
  100342:	e8 36 ff ff ff       	call   10027d <tty_put_str>
  100347:	83 c4 10             	add    $0x10,%esp
  10034a:	90                   	nop
  10034b:	83 c4 1c             	add    $0x1c,%esp
  10034e:	c3                   	ret    
